target datalayout = "e-m:e-p270:32:32-p271:32:32-p272:64:64-i64:64-i128:128-f80:128-n8:16:32:64-S128"
target triple = "x86_64-unknown-linux-gnu"

%"class.std::__cxx11::basic_string" = type { %"struct.std::__cxx11::basic_string<char>::_Alloc_hider", i64, %union.anon }
%"struct.std::__cxx11::basic_string<char>::_Alloc_hider" = type { ptr }
%union.anon = type { i64, [8 x i8] }
%"class.rocksdb::Slice" = type { ptr, i64 }
%"class.std::allocator.0" = type { i8 }

@_ZN7rocksdb17kValueTypeForSeekE = external constant i8, align 1

; Function Attrs: mustprogress nounwind uwtable
define linkonce_odr void @_ZN7rocksdb5SliceC2EPKcm(ptr noundef nonnull align 8 dereferenceable(16) %this, ptr noundef %d, i64 noundef %n) unnamed_addr #1 comdat align 2 {
entry:
  %this.addr = alloca ptr, align 8
  %d.addr = alloca ptr, align 8
  %n.addr = alloca i64, align 8
  store ptr %this, ptr %this.addr, align 8
  store ptr %d, ptr %d.addr, align 8
  store i64 %n, ptr %n.addr, align 8
  %this1 = load ptr, ptr %this.addr, align 8
  %data_ = getelementptr inbounds %"class.rocksdb::Slice", ptr %this1, i32 0, i32 0
  %0 = load ptr, ptr %d.addr, align 8
  store ptr %0, ptr %data_, align 8
  %size_ = getelementptr inbounds %"class.rocksdb::Slice", ptr %this1, i32 0, i32 1
  %1 = load i64, ptr %n.addr, align 8
  store i64 %1, ptr %size_, align 8
  ret void
}

; Function Attrs: mustprogress uwtable
define linkonce_odr void @_ZN7rocksdb10PutFixed64EPNSt7__cxx1112basic_stringIcSt11char_traitsIcESaIcEEEm(ptr noundef %dst, i64 noundef %value) #0 comdat {
entry:
  %dst.addr = alloca ptr, align 8
  %value.addr = alloca i64, align 8
  store ptr %dst, ptr %dst.addr, align 8
  store i64 %value, ptr %value.addr, align 8
  %0 = load ptr, ptr %dst.addr, align 8
  %call = call noundef nonnull align 8 dereferenceable(32) ptr @_ZNSt7__cxx1112basic_stringIcSt11char_traitsIcESaIcEE6appendEPKcm(ptr noundef nonnull align 8 dereferenceable(32) %0, ptr noundef %value.addr, i64 noundef 8)
  ret void
}

; Function Attrs: mustprogress nounwind uwtable
define linkonce_odr noundef i64 @_ZN7rocksdb19PackSequenceAndTypeEmNS_9ValueTypeE(i64 noundef %seq, i8 noundef zeroext %t) #1 comdat {
entry:
  %seq.addr = alloca i64, align 8
  %t.addr = alloca i8, align 1
  store i64 %seq, ptr %seq.addr, align 8
  store i8 %t, ptr %t.addr, align 1
  %0 = load i64, ptr %seq.addr, align 8
  %shl = shl i64 %0, 8
  %1 = load i8, ptr %t.addr, align 1
  %conv = zext i8 %1 to i64
  %or = or i64 %shl, %conv
  ret i64 %or
}

; Function Attrs: mustprogress nounwind uwtable
define linkonce_odr noundef i64 @_ZNK7rocksdb5Slice4sizeEv(ptr noundef nonnull align 8 dereferenceable(16) %this) #1 comdat align 2 {
entry:
  %this.addr = alloca ptr, align 8
  store ptr %this, ptr %this.addr, align 8
  %this1 = load ptr, ptr %this.addr, align 8
  %size_ = getelementptr inbounds %"class.rocksdb::Slice", ptr %this1, i32 0, i32 1
  %0 = load i64, ptr %size_, align 8
  ret i64 %0
}

; Function Attrs: mustprogress nounwind uwtable
define linkonce_odr noundef ptr @_ZNK7rocksdb5Slice4dataEv(ptr noundef nonnull align 8 dereferenceable(16) %this) #1 comdat align 2 {
entry:
  %this.addr = alloca ptr, align 8
  store ptr %this, ptr %this.addr, align 8
  %this1 = load ptr, ptr %this.addr, align 8
  %data_ = getelementptr inbounds %"class.rocksdb::Slice", ptr %this1, i32 0, i32 0
  %0 = load ptr, ptr %data_, align 8
  ret ptr %0
}

; Function Attrs: mustprogress uwtable
define linkonce_odr { ptr, i64 } @_ZN7rocksdb14ExtractUserKeyERKNS_5SliceE(ptr noundef nonnull align 8 dereferenceable(16) %internal_key) #0 comdat {
entry:
  %retval = alloca %"class.rocksdb::Slice", align 8
  %internal_key.addr = alloca ptr, align 8
  store ptr %internal_key, ptr %internal_key.addr, align 8
  %0 = load ptr, ptr %internal_key.addr, align 8
  %call = call noundef ptr @_ZNK7rocksdb5Slice4dataEv(ptr noundef nonnull align 8 dereferenceable(16) %0)
  %1 = load ptr, ptr %internal_key.addr, align 8
  %call1 = call noundef i64 @_ZNK7rocksdb5Slice4sizeEv(ptr noundef nonnull align 8 dereferenceable(16) %1)
  %sub = sub i64 %call1, 8
  call void @_ZN7rocksdb5SliceC2EPKcm(ptr noundef nonnull align 8 dereferenceable(16) %retval, ptr noundef %call, i64 noundef %sub)
  %2 = load { ptr, i64 }, ptr %retval, align 8
  ret { ptr, i64 } %2
}

; Function Attrs: mustprogress nounwind uwtable
define linkonce_odr void @_ZN7rocksdb5SliceC2ERKNSt7__cxx1112basic_stringIcSt11char_traitsIcESaIcEEE(ptr noundef nonnull align 8 dereferenceable(16) %this, ptr noundef nonnull align 8 dereferenceable(32) %s) unnamed_addr #1 comdat align 2 {
entry:
  %this.addr = alloca ptr, align 8
  %s.addr = alloca ptr, align 8
  store ptr %this, ptr %this.addr, align 8
  store ptr %s, ptr %s.addr, align 8
  %this1 = load ptr, ptr %this.addr, align 8
  %data_ = getelementptr inbounds %"class.rocksdb::Slice", ptr %this1, i32 0, i32 0
  %0 = load ptr, ptr %s.addr, align 8
  %call = call noundef ptr @_ZNKSt7__cxx1112basic_stringIcSt11char_traitsIcESaIcEE4dataEv(ptr noundef nonnull align 8 dereferenceable(32) %0) #3
  store ptr %call, ptr %data_, align 8
  %size_ = getelementptr inbounds %"class.rocksdb::Slice", ptr %this1, i32 0, i32 1
  %1 = load ptr, ptr %s.addr, align 8
  %call2 = call noundef i64 @_ZNKSt7__cxx1112basic_stringIcSt11char_traitsIcESaIcEE4sizeEv(ptr noundef nonnull align 8 dereferenceable(32) %1) #3
  store i64 %call2, ptr %size_, align 8
  ret void
}

; Function Attrs: mustprogress uwtable
define void @_ZN7rocksdb21ShortenedIndexBuilder29FindShortInternalKeySuccessorERKNS_10ComparatorEPNSt7__cxx1112basic_stringIcSt11char_traitsIcESaIcEEE(ptr noundef nonnull align 8 dereferenceable(48) %comparator, ptr noundef %key) #0 align 2 personality ptr @__gxx_personality_v0 {
entry:
  %comparator.addr = alloca ptr, align 8
  %key.addr = alloca ptr, align 8
  %user_key = alloca %"class.rocksdb::Slice", align 8
  %ref.tmp = alloca %"class.rocksdb::Slice", align 8
  %tmp = alloca %"class.std::__cxx11::basic_string", align 8
  %ref.tmp3 = alloca %"class.std::allocator.0", align 1
  %exn.slot = alloca ptr, align 8
  %ehselector.slot = alloca i32, align 4
  %ref.tmp9 = alloca %"class.rocksdb::Slice", align 8
  store ptr %comparator, ptr %comparator.addr, align 8
  store ptr %key, ptr %key.addr, align 8
  %0 = load ptr, ptr %key.addr, align 8
  call void @_ZN7rocksdb5SliceC2ERKNSt7__cxx1112basic_stringIcSt11char_traitsIcESaIcEEE(ptr noundef nonnull align 8 dereferenceable(16) %ref.tmp, ptr noundef nonnull align 8 dereferenceable(32) %0)
  %call = call { ptr, i64 } @_ZN7rocksdb14ExtractUserKeyERKNS_5SliceE(ptr noundef nonnull align 8 dereferenceable(16) %ref.tmp)
  %1 = getelementptr inbounds { ptr, i64 }, ptr %user_key, i32 0, i32 0
  %2 = extractvalue { ptr, i64 } %call, 0
  store ptr %2, ptr %1, align 8
  %3 = getelementptr inbounds { ptr, i64 }, ptr %user_key, i32 0, i32 1
  %4 = extractvalue { ptr, i64 } %call, 1
  store i64 %4, ptr %3, align 8
  %call1 = call noundef ptr @_ZNK7rocksdb5Slice4dataEv(ptr noundef nonnull align 8 dereferenceable(16) %user_key)
  %call2 = call noundef i64 @_ZNK7rocksdb5Slice4sizeEv(ptr noundef nonnull align 8 dereferenceable(16) %user_key)
  call void @_ZNSaIcEC1Ev(ptr noundef nonnull align 1 dereferenceable(1) %ref.tmp3) #3
  invoke void @_ZNSt7__cxx1112basic_stringIcSt11char_traitsIcESaIcEEC1EPKcmRKS3_(ptr noundef nonnull align 8 dereferenceable(32) %tmp, ptr noundef %call1, i64 noundef %call2, ptr noundef nonnull align 1 dereferenceable(1) %ref.tmp3)
          to label %invoke.cont unwind label %lpad

invoke.cont:                                      ; preds = %entry
  call void @_ZNSaIcED1Ev(ptr noundef nonnull align 1 dereferenceable(1) %ref.tmp3) #3
  %5 = load ptr, ptr %comparator.addr, align 8
  %vtable = load ptr, ptr %5, align 8
  %vfn = getelementptr inbounds ptr, ptr %vtable, i64 21
  %6 = load ptr, ptr %vfn, align 8
  invoke void %6(ptr noundef nonnull align 8 dereferenceable(48) %5, ptr noundef %tmp)
          to label %invoke.cont5 unwind label %lpad4

invoke.cont5:                                     ; preds = %invoke.cont
  %call6 = call noundef i64 @_ZNKSt7__cxx1112basic_stringIcSt11char_traitsIcESaIcEE4sizeEv(ptr noundef nonnull align 8 dereferenceable(32) %tmp) #3
  %call8 = invoke noundef i64 @_ZNK7rocksdb5Slice4sizeEv(ptr noundef nonnull align 8 dereferenceable(16) %user_key)
          to label %invoke.cont7 unwind label %lpad4

invoke.cont7:                                     ; preds = %invoke.cont5
  %cmp = icmp ule i64 %call6, %call8
  br i1 %cmp, label %land.rhs, label %land.end

land.rhs:                                         ; preds = %invoke.cont7
  %7 = load ptr, ptr %comparator.addr, align 8
  %add.ptr = getelementptr inbounds i8, ptr %7, i64 32
  invoke void @_ZN7rocksdb5SliceC2ERKNSt7__cxx1112basic_stringIcSt11char_traitsIcESaIcEEE(ptr noundef nonnull align 8 dereferenceable(16) %ref.tmp9, ptr noundef nonnull align 8 dereferenceable(32) %tmp)
          to label %invoke.cont10 unwind label %lpad4

invoke.cont10:                                    ; preds = %land.rhs
  %vtable11 = load ptr, ptr %add.ptr, align 8
  %vfn12 = getelementptr inbounds ptr, ptr %vtable11, i64 2
  %8 = load ptr, ptr %vfn12, align 8
  %call14 = invoke noundef i32 %8(ptr noundef nonnull align 8 dereferenceable(8) %add.ptr, ptr noundef nonnull align 8 dereferenceable(16) %user_key, ptr noundef nonnull align 8 dereferenceable(16) %ref.tmp9)
          to label %invoke.cont13 unwind label %lpad4

invoke.cont13:                                    ; preds = %invoke.cont10
  %cmp15 = icmp slt i32 %call14, 0
  br label %land.end

land.end:                                         ; preds = %invoke.cont13, %invoke.cont7
  %9 = phi i1 [ false, %invoke.cont7 ], [ %cmp15, %invoke.cont13 ]
  br i1 %9, label %if.then, label %if.end

if.then:                                          ; preds = %land.end
  %10 = load i8, ptr @_ZN7rocksdb17kValueTypeForSeekE, align 1
  %call17 = invoke noundef i64 @_ZN7rocksdb19PackSequenceAndTypeEmNS_9ValueTypeE(i64 noundef 72057594037927935, i8 noundef zeroext %10)
          to label %invoke.cont16 unwind label %lpad4

invoke.cont16:                                    ; preds = %if.then
  invoke void @_ZN7rocksdb10PutFixed64EPNSt7__cxx1112basic_stringIcSt11char_traitsIcESaIcEEEm(ptr noundef %tmp, i64 noundef %call17)
          to label %invoke.cont18 unwind label %lpad4

invoke.cont18:                                    ; preds = %invoke.cont16
  %11 = load ptr, ptr %key.addr, align 8
  call void @_ZNSt7__cxx1112basic_stringIcSt11char_traitsIcESaIcEE4swapERS4_(ptr noundef nonnull align 8 dereferenceable(32) %11, ptr noundef nonnull align 8 dereferenceable(32) %tmp) #3
  br label %if.end

lpad:                                             ; preds = %entry
  %12 = landingpad { ptr, i32 }
          cleanup
  %13 = extractvalue { ptr, i32 } %12, 0
  store ptr %13, ptr %exn.slot, align 8
  %14 = extractvalue { ptr, i32 } %12, 1
  store i32 %14, ptr %ehselector.slot, align 4
  call void @_ZNSaIcED1Ev(ptr noundef nonnull align 1 dereferenceable(1) %ref.tmp3) #3
  br label %eh.resume

lpad4:                                            ; preds = %invoke.cont16, %if.then, %invoke.cont10, %land.rhs, %invoke.cont5, %invoke.cont
  %15 = landingpad { ptr, i32 }
          cleanup
  %16 = extractvalue { ptr, i32 } %15, 0
  store ptr %16, ptr %exn.slot, align 8
  %17 = extractvalue { ptr, i32 } %15, 1
  store i32 %17, ptr %ehselector.slot, align 4
  call void @_ZNSt7__cxx1112basic_stringIcSt11char_traitsIcESaIcEED1Ev(ptr noundef nonnull align 8 dereferenceable(32) %tmp) #3
  br label %eh.resume

if.end:                                           ; preds = %invoke.cont18, %land.end
  call void @_ZNSt7__cxx1112basic_stringIcSt11char_traitsIcESaIcEED1Ev(ptr noundef nonnull align 8 dereferenceable(32) %tmp) #3
  ret void

eh.resume:                                        ; preds = %lpad4, %lpad
  %exn = load ptr, ptr %exn.slot, align 8
  %sel = load i32, ptr %ehselector.slot, align 4
  %lpad.val = insertvalue { ptr, i32 } poison, ptr %exn, 0
  %lpad.val19 = insertvalue { ptr, i32 } %lpad.val, i32 %sel, 1
  resume { ptr, i32 } %lpad.val19
}