; Function Attrs: mustprogress uwtable
define void @_ZN7rocksdb21ShortenedIndexBuilder29FindShortInternalKeySuccessorERKNS_10ComparatorEPNSt7__cxx1112basic_stringIcSt11char_traitsIcESaIcEEE(ptr noundef nonnull align 8 dereferenceable(48) %comparator, ptr noundef nonnull %key) local_unnamed_addr #2 align 2 personality ptr @__gxx_personality_v0 {
entry:
  %value.addr.i = alloca i64, align 8
  %user_key = alloca %"class.rocksdb::Slice", align 8
  %tmp = alloca %"class.std::__cxx11::basic_string", align 8
  %ref.tmp3 = alloca %"class.std::allocator.0", align 1
  %ref.tmp9 = alloca %"class.rocksdb::Slice", align 8
  %call.i = tail call noundef ptr @_ZNKSt7__cxx1112basic_stringIcSt11char_traitsIcESaIcEE4dataEv(ptr noundef nonnull align 8 dereferenceable(32) %key) #20
  %call2.i = tail call noundef i64 @_ZNKSt7__cxx1112basic_stringIcSt11char_traitsIcESaIcEE4sizeEv(ptr noundef nonnull align 8 dereferenceable(32) %key) #20
  %sub.i = add i64 %call2.i, -8
  store ptr %call.i, ptr %user_key, align 8
  %0 = getelementptr inbounds i8, ptr %user_key, i64 8
  store i64 %sub.i, ptr %0, align 8
  call void @_ZNSaIcEC1Ev(ptr noundef nonnull align 1 dereferenceable(1) %ref.tmp3) #20
  invoke void @_ZNSt7__cxx1112basic_stringIcSt11char_traitsIcESaIcEEC1EPKcmRKS3_(ptr noundef nonnull align 8 dereferenceable(32) %tmp, ptr noundef %call.i, i64 noundef %sub.i, ptr noundef nonnull align 1 dereferenceable(1) %ref.tmp3)
          to label %invoke.cont unwind label %lpad

invoke.cont:                                      ; preds = %entry
  call void @_ZNSaIcED1Ev(ptr noundef nonnull align 1 dereferenceable(1) %ref.tmp3) #20
  %vtable = load ptr, ptr %comparator, align 8
  %vfn = getelementptr inbounds i8, ptr %vtable, i64 168
  %1 = load ptr, ptr %vfn, align 8
  invoke void %1(ptr noundef nonnull align 8 dereferenceable(48) %comparator, ptr noundef nonnull %tmp)
          to label %invoke.cont5 unwind label %lpad4

invoke.cont5:                                     ; preds = %invoke.cont
  %call6 = call noundef i64 @_ZNKSt7__cxx1112basic_stringIcSt11char_traitsIcESaIcEE4sizeEv(ptr noundef nonnull align 8 dereferenceable(32) %tmp) #20
  %cmp.not = icmp ugt i64 %call6, %sub.i
  br i1 %cmp.not, label %if.end, label %land.rhs

land.rhs:                                         ; preds = %invoke.cont5
  %add.ptr = getelementptr inbounds i8, ptr %comparator, i64 32
  %call.i6 = call noundef ptr @_ZNKSt7__cxx1112basic_stringIcSt11char_traitsIcESaIcEE4dataEv(ptr noundef nonnull align 8 dereferenceable(32) %tmp) #20
  store ptr %call.i6, ptr %ref.tmp9, align 8
  %size_.i7 = getelementptr inbounds i8, ptr %ref.tmp9, i64 8
  %call2.i8 = call noundef i64 @_ZNKSt7__cxx1112basic_stringIcSt11char_traitsIcESaIcEE4sizeEv(ptr noundef nonnull align 8 dereferenceable(32) %tmp) #20
  store i64 %call2.i8, ptr %size_.i7, align 8
  %vtable11 = load ptr, ptr %add.ptr, align 8
  %vfn12 = getelementptr inbounds i8, ptr %vtable11, i64 16
  %2 = load ptr, ptr %vfn12, align 8
  %call14 = invoke noundef i32 %2(ptr noundef nonnull align 8 dereferenceable(8) %add.ptr, ptr noundef nonnull align 8 dereferenceable(16) %user_key, ptr noundef nonnull align 8 dereferenceable(16) %ref.tmp9)
          to label %invoke.cont13 unwind label %lpad4

invoke.cont13:                                    ; preds = %land.rhs
  %cmp15 = icmp slt i32 %call14, 0
  br i1 %cmp15, label %if.then, label %if.end

if.then:                                          ; preds = %invoke.cont13
  %3 = load i8, ptr @_ZN7rocksdb17kValueTypeForSeekE, align 1
  %conv.i = zext i8 %3 to i64
  %or.i = or disjoint i64 %conv.i, -256
  call void @llvm.lifetime.start.p0(i64 8, ptr nonnull %value.addr.i)
  store i64 %or.i, ptr %value.addr.i, align 8
  %call.i910 = invoke noundef nonnull align 8 dereferenceable(32) ptr @_ZNSt7__cxx1112basic_stringIcSt11char_traitsIcESaIcEE6appendEPKcm(ptr noundef nonnull align 8 dereferenceable(32) %tmp, ptr noundef nonnull %value.addr.i, i64 noundef 8)
          to label %invoke.cont18 unwind label %lpad4

invoke.cont18:                                    ; preds = %if.then
  call void @llvm.lifetime.end.p0(i64 8, ptr nonnull %value.addr.i)
  call void @_ZNSt7__cxx1112basic_stringIcSt11char_traitsIcESaIcEE4swapERS4_(ptr noundef nonnull align 8 dereferenceable(32) %key, ptr noundef nonnull align 8 dereferenceable(32) %tmp) #20
  br label %if.end

lpad:                                             ; preds = %entry
  %4 = landingpad { ptr, i32 }
          cleanup
  call void @_ZNSaIcED1Ev(ptr noundef nonnull align 1 dereferenceable(1) %ref.tmp3) #20
  br label %eh.resume

lpad4:                                            ; preds = %if.then, %land.rhs, %invoke.cont
  %5 = landingpad { ptr, i32 }
          cleanup
  call void @_ZNSt7__cxx1112basic_stringIcSt11char_traitsIcESaIcEED1Ev(ptr noundef nonnull align 8 dereferenceable(32) %tmp) #20
  br label %eh.resume

if.end:                                           ; preds = %invoke.cont5, %invoke.cont18, %invoke.cont13
  call void @_ZNSt7__cxx1112basic_stringIcSt11char_traitsIcESaIcEED1Ev(ptr noundef nonnull align 8 dereferenceable(32) %tmp) #20
  ret void

eh.resume:                                        ; preds = %lpad4, %lpad
  %.pn = phi { ptr, i32 } [ %5, %lpad4 ], [ %4, %lpad ]
  resume { ptr, i32 } %.pn
}